; Function Attrs: mustprogress nounwind uwtable
define dso_local void @_ZN4llvm19MachineTraceMetrics8Ensemble11updateDepthEPKNS_17MachineBasicBlockERKNS_12MachineInstrERNS_9SparseSetINS_11LiveRegUnitENS_8identityIjEEhEE(ptr noundef nonnull align 8 dereferenceable(440) %0, ptr noundef readonly captures(none) %1, ptr noundef nonnull align 8 dereferenceable(70) %2, ptr noundef nonnull align 8 dereferenceable(222) %3) local_unnamed_addr #0 align 2 {
  %5 = getelementptr inbounds nuw i8, ptr %0, i64 8
  %6 = getelementptr inbounds nuw i8, ptr %1, i64 24
  %7 = load i32, ptr %6, align 8
  %8 = sext i32 %7 to i64
  %9 = load ptr, ptr %5, align 8
  %10 = getelementptr inbounds %"struct.llvm::MachineTraceMetrics::TraceBlockInfo", ptr %9, i64 %8
  tail call void @_ZN4llvm19MachineTraceMetrics8Ensemble11updateDepthERNS0_14TraceBlockInfoERKNS_12MachineInstrERNS_9SparseSetINS_11LiveRegUnitENS_8identityIjEEhEE(ptr noundef nonnull align 8 dereferenceable(440) %0, ptr noundef nonnull align 8 dereferenceable(88) %10, ptr noundef nonnull align 8 dereferenceable(70) %2, ptr noundef nonnull align 8 dereferenceable(222) %3)
  ret void
}